target datalayout = "e-m:e-p270:32:32-p271:32:32-p272:64:64-i64:64-i128:128-f80:128-n8:16:32:64-S128"
target triple = "x86_64-pc-linux-gnu"

%struct.AVStream = type { ptr, i32, i32, ptr, ptr, %struct.AVRational, i64, i64, i64, i32, i32, %struct.AVRational, ptr, %struct.AVRational, %struct.AVPacket, i32, %struct.AVRational, i32 }
%struct.AVPacket = type { ptr, i64, i64, ptr, i32, i32, i32, ptr, i32, i64, i64, ptr, ptr, %struct.AVRational }
%struct.AVRational = type { i32, i32 }
%struct.AVFormatContext = type { ptr, ptr, ptr, ptr, ptr, i32, i32, ptr, i32, ptr, i32, ptr, ptr, i64, i64, i64, i32, i32, i32, i64, i64, ptr, i32, i32, ptr, i32, i32, i32, i32, ptr, i64, i32, i32, %struct.AVIOInterruptCB, i32, i32, i32, i32, i64, i32, i32, i32, i32, i32, i32, i32, i32, i32, i32, i32, i32, i64, i32, i32, i32, i32, i32, ptr, ptr, ptr, ptr, i32, ptr, ptr, ptr, ptr, i32, ptr, ptr, i64, ptr, ptr, ptr, i64 }
%struct.AVIOInterruptCB = type { ptr, ptr }
%struct.AVCodecParameters = type { i32, i32, i32, ptr, i32, ptr, i32, i32, i64, i32, i32, i32, i32, i32, i32, %struct.AVRational, %struct.AVRational, i32, i32, i32, i32, i32, i32, i32, %struct.AVChannelLayout, i32, i32, i32, i32, i32, i32 }
%struct.AVChannelLayout = type { i32, i32, %union.anon.3, ptr }
%union.anon.3 = type { i64 }

; Function Attrs: nounwind uwtable
define i32 @setup_find_stream_info_opts(ptr noundef %0, ptr noundef %1, ptr noundef %2) #0 {
  %4 = alloca i32, align 4
  %5 = alloca ptr, align 8
  %6 = alloca ptr, align 8
  %7 = alloca ptr, align 8
  %8 = alloca i32, align 4
  %9 = alloca ptr, align 8
  %10 = alloca i32, align 4
  %11 = alloca i32, align 4
  %12 = alloca i32, align 4
  store ptr %0, ptr %5, align 8, !tbaa !133
  store ptr %1, ptr %6, align 8, !tbaa !105
  store ptr %2, ptr %7, align 8, !tbaa !202
  call void @llvm.lifetime.start.p0(i64 4, ptr %8) #11
  call void @llvm.lifetime.start.p0(i64 8, ptr %9) #11
  %13 = load ptr, ptr %7, align 8, !tbaa !202
  store ptr null, ptr %13, align 8, !tbaa !192
  %14 = load ptr, ptr %5, align 8, !tbaa !133
  %15 = getelementptr inbounds nuw %struct.AVFormatContext, ptr %14, i32 0, i32 6
  %16 = load i32, ptr %15, align 4, !tbaa !204
  %17 = icmp ne i32 %16, 0
  br i1 %17, label %19, label %18

18:                                               ; preds = %3
  store i32 0, ptr %4, align 4
  store i32 1, ptr %10, align 4
  br label %92

19:                                               ; preds = %3
  %20 = load ptr, ptr %5, align 8, !tbaa !133
  %21 = getelementptr inbounds nuw %struct.AVFormatContext, ptr %20, i32 0, i32 6
  %22 = load i32, ptr %21, align 4, !tbaa !204
  %23 = zext i32 %22 to i64
  %24 = call noalias ptr @av_calloc(i64 noundef %23, i64 noundef 8)
  store ptr %24, ptr %9, align 8, !tbaa !192
  %25 = load ptr, ptr %9, align 8, !tbaa !192
  %26 = icmp ne ptr %25, null
  br i1 %26, label %28, label %27

27:                                               ; preds = %19
  store i32 -12, ptr %4, align 4
  store i32 1, ptr %10, align 4
  br label %92

28:                                               ; preds = %19
  call void @llvm.lifetime.start.p0(i64 4, ptr %11) #11
  store i32 0, ptr %11, align 4, !tbaa !8
  br label %29

29:                                               ; preds = %66, %28
  %30 = load i32, ptr %11, align 4, !tbaa !8
  %31 = load ptr, ptr %5, align 8, !tbaa !133
  %32 = getelementptr inbounds nuw %struct.AVFormatContext, ptr %31, i32 0, i32 6
  %33 = load i32, ptr %32, align 4, !tbaa !204
  %34 = icmp ult i32 %30, %33
  br i1 %34, label %36, label %35

35:                                               ; preds = %29
  store i32 2, ptr %10, align 4
  br label %69

36:                                               ; preds = %29
  %37 = load ptr, ptr %6, align 8, !tbaa !105
  %38 = load ptr, ptr %5, align 8, !tbaa !133
  %39 = getelementptr inbounds nuw %struct.AVFormatContext, ptr %38, i32 0, i32 7
  %40 = load ptr, ptr %39, align 8, !tbaa !171
  %41 = load i32, ptr %11, align 4, !tbaa !8
  %42 = sext i32 %41 to i64
  %43 = getelementptr inbounds ptr, ptr %40, i64 %42
  %44 = load ptr, ptr %43, align 8, !tbaa !135
  %45 = getelementptr inbounds nuw %struct.AVStream, ptr %44, i32 0, i32 3
  %46 = load ptr, ptr %45, align 8, !tbaa !174
  %47 = getelementptr inbounds nuw %struct.AVCodecParameters, ptr %46, i32 0, i32 1
  %48 = load i32, ptr %47, align 4, !tbaa !205
  %49 = load ptr, ptr %5, align 8, !tbaa !133
  %50 = load ptr, ptr %5, align 8, !tbaa !133
  %51 = getelementptr inbounds nuw %struct.AVFormatContext, ptr %50, i32 0, i32 7
  %52 = load ptr, ptr %51, align 8, !tbaa !171
  %53 = load i32, ptr %11, align 4, !tbaa !8
  %54 = sext i32 %53 to i64
  %55 = getelementptr inbounds ptr, ptr %52, i64 %54
  %56 = load ptr, ptr %55, align 8, !tbaa !135
  %57 = load ptr, ptr %9, align 8, !tbaa !192
  %58 = load i32, ptr %11, align 4, !tbaa !8
  %59 = sext i32 %58 to i64
  %60 = getelementptr inbounds ptr, ptr %57, i64 %59
  %61 = call i32 @filter_codec_opts(ptr noundef %37, i32 noundef %48, ptr noundef %49, ptr noundef %56, ptr noundef null, ptr noundef %60, ptr noundef null)
  store i32 %61, ptr %8, align 4, !tbaa !8
  %62 = load i32, ptr %8, align 4, !tbaa !8
  %63 = icmp slt i32 %62, 0
  br i1 %63, label %64, label %65

64:                                               ; preds = %36
  store i32 5, ptr %10, align 4
  br label %69

65:                                               ; preds = %36
  br label %66

66:                                               ; preds = %65
  %67 = load i32, ptr %11, align 4, !tbaa !8
  %68 = add nsw i32 %67, 1
  store i32 %68, ptr %11, align 4, !tbaa !8
  br label %29, !llvm.loop !206

69:                                               ; preds = %64, %35
  call void @llvm.lifetime.end.p0(i64 4, ptr %11) #11
  %70 = load i32, ptr %10, align 4
  switch i32 %70, label %92 [
    i32 2, label %71
    i32 5, label %74
  ]

71:                                               ; preds = %69
  %72 = load ptr, ptr %9, align 8, !tbaa !192
  %73 = load ptr, ptr %7, align 8, !tbaa !202
  store ptr %72, ptr %73, align 8, !tbaa !192
  store i32 0, ptr %4, align 4
  store i32 1, ptr %10, align 4
  br label %92

74:                                               ; preds = %69
  call void @llvm.lifetime.start.p0(i64 4, ptr %12) #11
  store i32 0, ptr %12, align 4, !tbaa !8
  br label %75

75:                                               ; preds = %87, %74
  %76 = load i32, ptr %12, align 4, !tbaa !8
  %77 = load ptr, ptr %5, align 8, !tbaa !133
  %78 = getelementptr inbounds nuw %struct.AVFormatContext, ptr %77, i32 0, i32 6
  %79 = load i32, ptr %78, align 4, !tbaa !204
  %80 = icmp ult i32 %76, %79
  br i1 %80, label %82, label %81

81:                                               ; preds = %75
  store i32 6, ptr %10, align 4
  call void @llvm.lifetime.end.p0(i64 4, ptr %12) #11
  br label %90

82:                                               ; preds = %75
  %83 = load ptr, ptr %9, align 8, !tbaa !192
  %84 = load i32, ptr %12, align 4, !tbaa !8
  %85 = sext i32 %84 to i64
  %86 = getelementptr inbounds ptr, ptr %83, i64 %85
  call void @av_dict_free(ptr noundef %86)
  br label %87

87:                                               ; preds = %82
  %88 = load i32, ptr %12, align 4, !tbaa !8
  %89 = add nsw i32 %88, 1
  store i32 %89, ptr %12, align 4, !tbaa !8
  br label %75, !llvm.loop !207

90:                                               ; preds = %81
  call void @av_freep(ptr noundef %9)
  %91 = load i32, ptr %8, align 4, !tbaa !8
  store i32 %91, ptr %4, align 4
  store i32 1, ptr %10, align 4
  br label %92

92:                                               ; preds = %90, %71, %69, %27, %18
  call void @llvm.lifetime.end.p0(i64 8, ptr %9) #11
  call void @llvm.lifetime.end.p0(i64 4, ptr %8) #11
  %93 = load i32, ptr %4, align 4
  ret i32 %93
}