; Function Attrs: nounwind uwtable
define range(i32 -2147483648, 1) i32 @setup_find_stream_info_opts(ptr noundef readonly captures(none) %0, ptr noundef %1, ptr noundef writeonly captures(none) initializes((0, 8)) %2) local_unnamed_addr #0 {
  %4 = alloca ptr, align 8
  call void @llvm.lifetime.start.p0(i64 8, ptr nonnull %4) #15
  store ptr null, ptr %2, align 8, !tbaa !173
  %5 = getelementptr inbounds nuw i8, ptr %0, i64 44
  %6 = load i32, ptr %5, align 4, !tbaa !175
  %.not = icmp eq i32 %6, 0
  br i1 %.not, label %28, label %7

7:                                                ; preds = %3
  %8 = zext i32 %6 to i64
  %9 = tail call noalias ptr @av_calloc(i64 noundef %8, i64 noundef 8) #15
  store ptr %9, ptr %4, align 8, !tbaa !173
  %.not28 = icmp eq ptr %9, null
  br i1 %.not28, label %28, label %.preheader31

.preheader31:                                     ; preds = %7
  %10 = load i32, ptr %5, align 4, !tbaa !175
  %.not36 = icmp eq i32 %10, 0
  br i1 %.not36, label %._crit_edge, label %.lr.ph

.lr.ph:                                           ; preds = %.preheader31
  %11 = getelementptr inbounds nuw i8, ptr %0, i64 48
  br label %16

12:                                               ; preds = %16
  %indvars.iv.next = add nuw nsw i64 %indvars.iv, 1
  %13 = load i32, ptr %5, align 4, !tbaa !175
  %14 = zext i32 %13 to i64
  %15 = icmp samesign ult i64 %indvars.iv.next, %14
  br i1 %15, label %16, label %._crit_edge, !llvm.loop !176

16:                                               ; preds = %.lr.ph, %12
  %indvars.iv = phi i64 [ 0, %.lr.ph ], [ %indvars.iv.next, %12 ]
  %17 = load ptr, ptr %11, align 8, !tbaa !146
  %18 = getelementptr inbounds nuw ptr, ptr %17, i64 %indvars.iv
  %19 = load ptr, ptr %18, align 8, !tbaa !148
  %20 = getelementptr inbounds nuw ptr, ptr %9, i64 %indvars.iv
  %21 = tail call i32 @filter_codec_opts(ptr noundef %1, i32 poison, ptr noundef nonnull %0, ptr noundef %19, ptr noundef null, ptr noundef nonnull %20, ptr noundef null)
  %22 = icmp slt i32 %21, 0
  br i1 %22, label %.preheader, label %12

.preheader:                                       ; preds = %16
  %23 = load i32, ptr %5, align 4, !tbaa !175
  %.not37 = icmp eq i32 %23, 0
  br i1 %.not37, label %._crit_edge35, label %.lr.ph34

._crit_edge:                                      ; preds = %12, %.preheader31
  store ptr %9, ptr %2, align 8, !tbaa !173
  br label %28

._crit_edge35:                                    ; preds = %.lr.ph34, %.preheader
  call void @av_freep(ptr noundef nonnull %4) #15
  br label %28

.lr.ph34:                                         ; preds = %.preheader, %.lr.ph34
  %indvars.iv40 = phi i64 [ %indvars.iv.next41, %.lr.ph34 ], [ 0, %.preheader ]
  %24 = getelementptr inbounds nuw ptr, ptr %9, i64 %indvars.iv40
  tail call void @av_dict_free(ptr noundef nonnull %24) #15
  %indvars.iv.next41 = add nuw nsw i64 %indvars.iv40, 1
  %25 = load i32, ptr %5, align 4, !tbaa !175
  %26 = zext i32 %25 to i64
  %27 = icmp samesign ult i64 %indvars.iv.next41, %26
  br i1 %27, label %.lr.ph34, label %._crit_edge35, !llvm.loop !177

28:                                               ; preds = %7, %3, %._crit_edge35, %._crit_edge
  %.024 = phi i32 [ %21, %._crit_edge35 ], [ 0, %._crit_edge ], [ 0, %3 ], [ -12, %7 ]
  call void @llvm.lifetime.end.p0(i64 8, ptr nonnull %4) #15
  ret i32 %.024
}